target datalayout = "e-m:e-p270:32:32-p271:32:32-p272:64:64-i64:64-i128:128-f80:128-n8:16:32:64-S128"
target triple = "x86_64-pc-linux-gnu"

@ett_tlv = internal global [256 x i32] zeroinitializer, align 16
@.str.7 = private unnamed_addr constant [15 x i8] c"WiMax Protocol\00", align 1
@.str.8 = private unnamed_addr constant [12 x i8] c"WiMax (wmx)\00", align 1
@.str.9 = private unnamed_addr constant [4 x i8] c"wmx\00", align 1
@proto_wimax = hidden global i32 0, align 4
@.str.10 = private unnamed_addr constant [14 x i8] c"basic_cid_max\00", align 1
@.str.11 = private unnamed_addr constant [18 x i8] c"Maximum Basic CID\00", align 1
@.str.12 = private unnamed_addr constant [152 x i8] c"Set the maximum Basic CID used in the Wimax decoder (if other than the default of 320).  Note: The maximum Primary CID is double the maximum Basic CID.\00", align 1
@global_cid_max_basic = external global i32, align 4
@.str.13 = private unnamed_addr constant [22 x i8] c"corrigendum_2_version\00", align 1
@.str.14 = private unnamed_addr constant [22 x i8] c"Corrigendum 2 Version\00", align 1
@.str.15 = private unnamed_addr constant [119 x i8] c"Set to true to use the Corrigendum 2 version of Wimax message decoding. Set to false to use the 802.16e-2005  version.\00", align 1
@include_cor2_changes = external global i8, align 1
@.str.16 = private unnamed_addr constant [20 x i8] c"wimax.basic_cid_max\00", align 1
@.str.17 = private unnamed_addr constant [28 x i8] c"wimax.corrigendum_2_version\00", align 1

; Function Attrs: null_pointer_is_valid sspstrong uwtable
define hidden void @proto_register_wimax() #0 {
  %1 = alloca i32, align 4
  %2 = alloca ptr, align 8
  %3 = alloca [256 x ptr], align 16
  call void @llvm.lifetime.start.p0(i64 4, ptr %1) #5
  call void @llvm.lifetime.start.p0(i64 8, ptr %2) #5
  call void @llvm.lifetime.start.p0(i64 2048, ptr %3) #5
  %4 = call i32 @proto_register_protocol(ptr noundef @.str.7, ptr noundef @.str.8, ptr noundef @.str.9)
  store i32 %4, ptr @proto_wimax, align 4
  %5 = load i32, ptr @proto_wimax, align 4
  call void @proto_register_field_array(i32 noundef %5, ptr noundef @proto_register_wimax.hf, i32 noundef 3)
  store i32 0, ptr %1, align 4
  br label %6

6:                                                ; preds = %16, %0
  %7 = load i32, ptr %1, align 4
  %8 = icmp slt i32 %7, 256
  br i1 %8, label %9, label %19

9:                                                ; preds = %6
  %10 = load i32, ptr %1, align 4
  %11 = sext i32 %10 to i64
  %12 = getelementptr [256 x i32], ptr @ett_tlv, i64 0, i64 %11
  %13 = load i32, ptr %1, align 4
  %14 = sext i32 %13 to i64
  %15 = getelementptr [256 x ptr], ptr %3, i64 0, i64 %14
  store ptr %12, ptr %15, align 8
  br label %16

16:                                               ; preds = %9
  %17 = load i32, ptr %1, align 4
  %18 = add i32 %17, 1
  store i32 %18, ptr %1, align 4
  br label %6, !llvm.loop !6

19:                                               ; preds = %6
  %20 = getelementptr inbounds [256 x ptr], ptr %3, i64 0, i64 0
  call void @proto_register_subtree_array(ptr noundef %20, i32 noundef 256)
  %21 = load i32, ptr @proto_wimax, align 4
  %22 = call ptr @register_dissector(ptr noundef @.str.9, ptr noundef @dissect_wimax, i32 noundef %21)
  %23 = load i32, ptr @proto_wimax, align 4
  %24 = call ptr @prefs_register_protocol(i32 noundef %23, ptr noundef null)
  store ptr %24, ptr %2, align 8
  %25 = load ptr, ptr %2, align 8
  call void @prefs_register_uint_preference(ptr noundef %25, ptr noundef @.str.10, ptr noundef @.str.11, ptr noundef @.str.12, i32 noundef 10, ptr noundef @global_cid_max_basic)
  %26 = load ptr, ptr %2, align 8
  call void @prefs_register_bool_preference(ptr noundef %26, ptr noundef @.str.13, ptr noundef @.str.14, ptr noundef @.str.15, ptr noundef @include_cor2_changes)
  %27 = load ptr, ptr %2, align 8
  call void @prefs_register_obsolete_preference(ptr noundef %27, ptr noundef @.str.16)
  %28 = load ptr, ptr %2, align 8
  call void @prefs_register_obsolete_preference(ptr noundef %28, ptr noundef @.str.17)
  call void @wimax_proto_register_wimax_cdma()
  call void @wimax_proto_register_wimax_compact_dlmap_ie()
  call void @wimax_proto_register_wimax_compact_ulmap_ie()
  call void @wimax_proto_register_wimax_fch()
  call void @wimax_proto_register_wimax_ffb()
  call void @wimax_proto_register_wimax_hack()
  call void @wimax_proto_register_wimax_harq_map()
  call void @wimax_proto_register_wimax_pdu()
  call void @wimax_proto_register_wimax_phy_attributes()
  call void @wimax_proto_register_wimax_utility_decoders()
  call void @wimax_proto_register_mac_header_generic()
  call void @wimax_proto_register_mac_header_type_1()
  call void @wimax_proto_register_mac_header_type_2()
  call void @llvm.lifetime.end.p0(i64 2048, ptr %3) #5
  call void @llvm.lifetime.end.p0(i64 8, ptr %2) #5
  call void @llvm.lifetime.end.p0(i64 4, ptr %1) #5
  ret void
}