; Function Attrs: null_pointer_is_valid sspstrong uwtable
define hidden void @proto_register_wimax() local_unnamed_addr #0 {
  %1 = alloca [256 x ptr], align 16
  call void @llvm.lifetime.start.p0(i64 2048, ptr nonnull %1) #5
  %2 = tail call i32 @proto_register_protocol(ptr noundef nonnull @.str.7, ptr noundef nonnull @.str.8, ptr noundef nonnull @.str.9)
  store i32 %2, ptr @proto_wimax, align 4
  tail call void @proto_register_field_array(i32 noundef %2, ptr noundef nonnull @proto_register_wimax.hf, i32 noundef 3)
  br label %3

3:                                                ; preds = %0, %3
  %indvars.iv = phi i64 [ 0, %0 ], [ %indvars.iv.next, %3 ]
  %4 = getelementptr [256 x i32], ptr @ett_tlv, i64 0, i64 %indvars.iv
  %5 = getelementptr [256 x ptr], ptr %1, i64 0, i64 %indvars.iv
  store ptr %4, ptr %5, align 8
  %indvars.iv.next = add nuw nsw i64 %indvars.iv, 1
  %exitcond.not = icmp eq i64 %indvars.iv.next, 256
  br i1 %exitcond.not, label %6, label %3, !llvm.loop !6

6:                                                ; preds = %3
  call void @proto_register_subtree_array(ptr noundef nonnull %1, i32 noundef 256)
  %7 = load i32, ptr @proto_wimax, align 4
  %8 = call ptr @register_dissector(ptr noundef nonnull @.str.9, ptr noundef nonnull @dissect_wimax, i32 noundef %7)
  %9 = load i32, ptr @proto_wimax, align 4
  %10 = call ptr @prefs_register_protocol(i32 noundef %9, ptr noundef null)
  call void @prefs_register_uint_preference(ptr noundef %10, ptr noundef nonnull @.str.10, ptr noundef nonnull @.str.11, ptr noundef nonnull @.str.12, i32 noundef 10, ptr noundef nonnull @global_cid_max_basic)
  call void @prefs_register_bool_preference(ptr noundef %10, ptr noundef nonnull @.str.13, ptr noundef nonnull @.str.14, ptr noundef nonnull @.str.15, ptr noundef nonnull @include_cor2_changes)
  call void @prefs_register_obsolete_preference(ptr noundef %10, ptr noundef nonnull @.str.16)
  call void @prefs_register_obsolete_preference(ptr noundef %10, ptr noundef nonnull @.str.17)
  call void @wimax_proto_register_wimax_cdma()
  call void @wimax_proto_register_wimax_compact_dlmap_ie()
  call void @wimax_proto_register_wimax_compact_ulmap_ie()
  call void @wimax_proto_register_wimax_fch()
  call void @wimax_proto_register_wimax_ffb()
  call void @wimax_proto_register_wimax_hack()
  call void @wimax_proto_register_wimax_harq_map()
  call void @wimax_proto_register_wimax_pdu()
  call void @wimax_proto_register_wimax_phy_attributes()
  call void @wimax_proto_register_wimax_utility_decoders()
  call void @wimax_proto_register_mac_header_generic()
  call void @wimax_proto_register_mac_header_type_1()
  call void @wimax_proto_register_mac_header_type_2()
  call void @llvm.lifetime.end.p0(i64 2048, ptr nonnull %1) #5
  ret void
}